; Function Attrs: nofree norecurse nosync nounwind memory(readwrite, inaccessiblemem: none) uwtable
define internal void @ff_tx_fft32768_ns_double_c(ptr readnone captures(none) %0, ptr noundef initializes((0, 256)) %1, ptr noundef readonly captures(none) %2, i64 %3) #10 {
  tail call void @ff_tx_fft4096_ns_double_c(ptr readnone poison, ptr noundef %1, ptr noundef readonly %2, i64 poison)
  %5 = getelementptr inbounds nuw i8, ptr %1, i64 65536
  %6 = getelementptr inbounds nuw i8, ptr %2, i64 65536
  tail call void @ff_tx_fft2048_ns_double_c(ptr readnone poison, ptr noundef nonnull %5, ptr noundef nonnull readonly %6, i64 poison)
  %7 = getelementptr inbounds nuw i8, ptr %1, i64 98304
  %8 = getelementptr inbounds nuw i8, ptr %2, i64 98304
  tail call void @ff_tx_fft2048_ns_double_c(ptr readnone poison, ptr noundef nonnull %7, ptr noundef nonnull readonly %8, i64 poison)
  tail call fastcc void @ff_tx_fft_sr_combine_double_c(ptr noundef %1, ptr noundef nonnull @ff_tx_tab_8192_double, i32 noundef 1024)
  %9 = getelementptr inbounds nuw i8, ptr %1, i64 131072
  %10 = getelementptr inbounds nuw i8, ptr %2, i64 131072
  tail call void @ff_tx_fft4096_ns_double_c(ptr readnone poison, ptr noundef nonnull %9, ptr noundef nonnull readonly %10, i64 poison)
  %11 = getelementptr inbounds nuw i8, ptr %1, i64 196608
  %12 = getelementptr inbounds nuw i8, ptr %2, i64 196608
  tail call void @ff_tx_fft4096_ns_double_c(ptr readnone poison, ptr noundef nonnull %11, ptr noundef nonnull readonly %12, i64 poison)
  tail call fastcc void @ff_tx_fft_sr_combine_double_c(ptr noundef %1, ptr noundef nonnull @ff_tx_tab_16384_double, i32 noundef 2048)
  %13 = getelementptr inbounds nuw i8, ptr %1, i64 262144
  %14 = getelementptr inbounds nuw i8, ptr %2, i64 262144
  tail call void @ff_tx_fft4096_ns_double_c(ptr readnone poison, ptr noundef nonnull %13, ptr noundef nonnull readonly %14, i64 poison)
  %15 = getelementptr inbounds nuw i8, ptr %1, i64 327680
  %16 = getelementptr inbounds nuw i8, ptr %2, i64 327680
  tail call void @ff_tx_fft2048_ns_double_c(ptr readnone poison, ptr noundef nonnull %15, ptr noundef nonnull readonly %16, i64 poison)
  %17 = getelementptr inbounds nuw i8, ptr %1, i64 360448
  %18 = getelementptr inbounds nuw i8, ptr %2, i64 360448
  tail call void @ff_tx_fft2048_ns_double_c(ptr readnone poison, ptr noundef nonnull %17, ptr noundef nonnull readonly %18, i64 poison)
  tail call fastcc void @ff_tx_fft_sr_combine_double_c(ptr noundef nonnull %13, ptr noundef nonnull @ff_tx_tab_8192_double, i32 noundef 1024)
  %19 = getelementptr inbounds nuw i8, ptr %1, i64 393216
  %20 = getelementptr inbounds nuw i8, ptr %2, i64 393216
  tail call void @ff_tx_fft4096_ns_double_c(ptr readnone poison, ptr noundef nonnull %19, ptr noundef nonnull readonly %20, i64 poison)
  %21 = getelementptr inbounds nuw i8, ptr %1, i64 458752
  %22 = getelementptr inbounds nuw i8, ptr %2, i64 458752
  tail call void @ff_tx_fft2048_ns_double_c(ptr readnone poison, ptr noundef nonnull %21, ptr noundef nonnull readonly %22, i64 poison)
  %23 = getelementptr inbounds nuw i8, ptr %1, i64 491520
  %24 = getelementptr inbounds nuw i8, ptr %2, i64 491520
  tail call void @ff_tx_fft2048_ns_double_c(ptr readnone poison, ptr noundef nonnull %23, ptr noundef nonnull readonly %24, i64 poison)
  tail call fastcc void @ff_tx_fft_sr_combine_double_c(ptr noundef nonnull %19, ptr noundef nonnull @ff_tx_tab_8192_double, i32 noundef 1024)
  tail call fastcc void @ff_tx_fft_sr_combine_double_c(ptr noundef %1, ptr noundef nonnull @ff_tx_tab_32768_double, i32 noundef 4096)
  ret void
}